target datalayout = "e-m:e-p270:32:32-p271:32:32-p272:64:64-i64:64-i128:128-f80:128-n8:16:32:64-S128"
target triple = "x86_64-pc-linux-gnu"

%struct.Vmem = type { ptr, i64, i64 }
%struct.ParseContext_ = type { %struct.TokenData, i32, %union.SourceSpan, %union.SourceSpan, ptr, %struct.Lexer }
%struct.TokenData = type { ptr, i64, %union.anon.86 }
%union.anon.86 = type { %struct.anon.89 }
%struct.anon.89 = type { %struct.Int128_, i8 }
%struct.Int128_ = type { i64, i64 }
%union.SourceSpan = type { i64 }
%struct.Lexer = type { ptr, ptr, ptr, ptr, i32, i32, ptr, ptr, ptr, %struct.TokenData, %union.SourceSpan, i32, i32 }
%struct.Ast_ = type { %union.SourceSpan, i32, i8, %union.anon.62 }
%union.anon.62 = type { %struct.AstDocDirective_ }
%struct.AstDocDirective_ = type { i8, %union.anon.65 }
%union.anon.65 = type { %struct.anon.66 }
%struct.anon.66 = type { ptr, %union.SourceSpan, i8 }
%struct.FlowCommon = type { i32, i8 }
%struct.anon.0 = type { i16, i8, i8, i32 }
%struct.TypeInfo_ = type { i16, ptr, %union.SourceSpan, %union.anon.57 }
%union.anon.57 = type { %struct.anon.58 }
%struct.anon.58 = type { ptr, ptr }
%struct.AstForeachStmt = type { %struct.FlowCommon, i16, i32, i32, i32, i32 }

@decl_arena = external global %struct.Vmem, align 8
@.str.24 = private unnamed_addr constant [39 x i8] c"Expected an identifier after the type.\00", align 1
@.str.25 = private unnamed_addr constant [32 x i8] c"Expected an identifier or type.\00", align 1

; Function Attrs: nounwind uwtable
define internal i32 @declid(ptr noundef %0) #0 {
  %2 = alloca ptr, align 8
  store ptr %0, ptr %2, align 8
  %3 = load ptr, ptr %2, align 8
  %4 = load ptr, ptr @decl_arena, align 8
  %5 = ptrtoint ptr %3 to i64
  %6 = ptrtoint ptr %4 to i64
  %7 = sub i64 %5, %6
  %8 = sdiv exact i64 %7, 136
  %9 = trunc i64 %8 to i32
  ret i32 %9
}

; Function Attrs: nounwind uwtable
define internal i64 @extend_span_with_token(i64 %0, i64 %1) #0 {
  %3 = alloca %union.SourceSpan, align 8
  %4 = alloca %union.SourceSpan, align 8
  %5 = alloca %union.SourceSpan, align 8
  %6 = getelementptr inbounds %union.SourceSpan, ptr %4, i32 0, i32 0
  store i64 %0, ptr %6, align 8
  %7 = getelementptr inbounds %union.SourceSpan, ptr %5, i32 0, i32 0
  store i64 %1, ptr %7, align 8
  %8 = getelementptr inbounds %struct.anon.0, ptr %4, i32 0, i32 3
  %9 = load i32, ptr %8, align 4
  %10 = getelementptr inbounds %struct.anon.0, ptr %5, i32 0, i32 3
  %11 = load i32, ptr %10, align 4
  %12 = icmp ne i32 %9, %11
  br i1 %12, label %13, label %14

13:                                               ; preds = %2
  call void @llvm.memcpy.p0.p0.i64(ptr align 8 %3, ptr align 8 %4, i64 8, i1 false)
  br label %28

14:                                               ; preds = %2
  %15 = getelementptr inbounds %struct.anon.0, ptr %5, i32 0, i32 2
  %16 = load i8, ptr %15, align 1
  %17 = zext i8 %16 to i32
  %18 = getelementptr inbounds %struct.anon.0, ptr %5, i32 0, i32 1
  %19 = load i8, ptr %18, align 2
  %20 = zext i8 %19 to i32
  %21 = add nsw i32 %17, %20
  %22 = getelementptr inbounds %struct.anon.0, ptr %4, i32 0, i32 2
  %23 = load i8, ptr %22, align 1
  %24 = zext i8 %23 to i32
  %25 = sub nsw i32 %21, %24
  %26 = trunc i32 %25 to i8
  %27 = getelementptr inbounds %struct.anon.0, ptr %4, i32 0, i32 1
  store i8 %26, ptr %27, align 2
  call void @llvm.memcpy.p0.p0.i64(ptr align 8 %3, ptr align 8 %4, i64 8, i1 false)
  br label %28

28:                                               ; preds = %14, %13
  %29 = getelementptr inbounds %union.SourceSpan, ptr %3, i32 0, i32 0
  %30 = load i64, ptr %29, align 8
  ret i64 %30
}

; Function Attrs: nounwind uwtable
define internal zeroext i1 @parse_foreach_var(ptr noundef %0, ptr noundef %1) #0 {
  %3 = alloca ptr, align 8
  %4 = alloca ptr, align 8
  %5 = alloca ptr, align 8
  %6 = alloca i32, align 4
  %7 = alloca ptr, align 8
  %8 = alloca i32, align 4
  %9 = alloca i1, align 1
  %10 = alloca ptr, align 8
  %11 = alloca ptr, align 8
  %12 = alloca ptr, align 8
  %13 = alloca ptr, align 8
  %14 = alloca %union.SourceSpan, align 8
  %15 = alloca ptr, align 8
  store ptr %0, ptr %10, align 8
  store ptr %1, ptr %11, align 8
  store ptr null, ptr %12, align 8
  %16 = load ptr, ptr %10, align 8
  store ptr %16, ptr %5, align 8
  store i32 64, ptr %6, align 4
  %17 = load ptr, ptr %5, align 8
  %18 = getelementptr inbounds %struct.ParseContext_, ptr %17, i32 0, i32 1
  %19 = load i32, ptr %18, align 8
  %20 = load i32, ptr %6, align 4
  %21 = icmp eq i32 %19, %20
  br i1 %21, label %61, label %22

22:                                               ; preds = %2
  %23 = load ptr, ptr %10, align 8
  store ptr %23, ptr %7, align 8
  store i32 1, ptr %8, align 4
  %24 = load ptr, ptr %7, align 8
  %25 = getelementptr inbounds %struct.ParseContext_, ptr %24, i32 0, i32 1
  %26 = load i32, ptr %25, align 8
  %27 = load i32, ptr %8, align 4
  %28 = icmp eq i32 %26, %27
  br i1 %28, label %61, label %29

29:                                               ; preds = %22
  %30 = load ptr, ptr %10, align 8
  %31 = call ptr @parse_optional_type(ptr noundef %30)
  store ptr %31, ptr %13, align 8
  %32 = load ptr, ptr %13, align 8
  store ptr %32, ptr %4, align 8
  %33 = load ptr, ptr %4, align 8
  %34 = icmp ne ptr %33, null
  br i1 %34, label %35, label %42

35:                                               ; preds = %29
  %36 = load ptr, ptr %4, align 8
  %37 = load i16, ptr %36, align 8
  %38 = lshr i16 %37, 3
  %39 = and i16 %38, 63
  %40 = zext i16 %39 to i32
  %41 = icmp ne i32 %40, 0
  br label %42

42:                                               ; preds = %35, %29
  %43 = phi i1 [ true, %29 ], [ %41, %35 ]
  br i1 %43, label %45, label %44

44:                                               ; preds = %42
  store i1 false, ptr %9, align 1
  br label %107

45:                                               ; preds = %42
  %46 = load ptr, ptr %13, align 8
  store ptr %46, ptr %12, align 8
  br label %47

47:                                               ; preds = %45
  %48 = load ptr, ptr %12, align 8
  %49 = getelementptr inbounds %struct.TypeInfo_, ptr %48, i32 0, i32 2
  %50 = load ptr, ptr %12, align 8
  %51 = getelementptr inbounds %struct.TypeInfo_, ptr %50, i32 0, i32 2
  %52 = load ptr, ptr %10, align 8
  %53 = getelementptr inbounds %struct.ParseContext_, ptr %52, i32 0, i32 3
  %54 = getelementptr inbounds %union.SourceSpan, ptr %51, i32 0, i32 0
  %55 = load i64, ptr %54, align 8
  %56 = getelementptr inbounds %union.SourceSpan, ptr %53, i32 0, i32 0
  %57 = load i64, ptr %56, align 8
  %58 = call i64 @extend_span_with_token(i64 %55, i64 %57)
  %59 = getelementptr inbounds %union.SourceSpan, ptr %14, i32 0, i32 0
  store i64 %58, ptr %59, align 8
  call void @llvm.memcpy.p0.p0.i64(ptr align 8 %49, ptr align 8 %14, i64 8, i1 false)
  br label %60

60:                                               ; preds = %47
  br label %61

61:                                               ; preds = %60, %22, %2
  %62 = load ptr, ptr %10, align 8
  %63 = call zeroext i1 @try_consume(ptr noundef %62, i32 noundef 1)
  br i1 %63, label %64, label %71

64:                                               ; preds = %61
  %65 = load ptr, ptr %11, align 8
  %66 = getelementptr inbounds %struct.Ast_, ptr %65, i32 0, i32 3
  %67 = getelementptr inbounds %struct.AstForeachStmt, ptr %66, i32 0, i32 1
  %68 = load i16, ptr %67, align 8
  %69 = and i16 %68, -3
  %70 = or i16 %69, 2
  store i16 %70, ptr %67, align 8
  br label %71

71:                                               ; preds = %64, %61
  %72 = load ptr, ptr %10, align 8
  store ptr %72, ptr %3, align 8
  %73 = load ptr, ptr %3, align 8
  %74 = getelementptr inbounds %struct.TokenData, ptr %73, i32 0, i32 2
  %75 = load ptr, ptr %74, align 8
  %76 = load ptr, ptr %10, align 8
  %77 = getelementptr inbounds %struct.ParseContext_, ptr %76, i32 0, i32 2
  %78 = load ptr, ptr %12, align 8
  %79 = getelementptr inbounds %union.SourceSpan, ptr %77, i32 0, i32 0
  %80 = load i64, ptr %79, align 8
  %81 = call ptr @decl_new_var(ptr noundef %75, i64 %80, ptr noundef %78, i32 noundef 2)
  store ptr %81, ptr %15, align 8
  %82 = load ptr, ptr %10, align 8
  %83 = call zeroext i1 @try_consume(ptr noundef %82, i32 noundef 64)
  br i1 %83, label %101, label %84

84:                                               ; preds = %71
  %85 = load ptr, ptr %12, align 8
  %86 = icmp ne ptr %85, null
  br i1 %86, label %87, label %94

87:                                               ; preds = %84
  br label %88

88:                                               ; preds = %87
  %89 = load ptr, ptr %10, align 8
  %90 = getelementptr inbounds %struct.ParseContext_, ptr %89, i32 0, i32 2
  %91 = getelementptr inbounds %union.SourceSpan, ptr %90, i32 0, i32 0
  %92 = load i64, ptr %91, align 8
  call void (i64, ptr, ...) @sema_error_at(i64 %92, ptr noundef @.str.24)
  store i1 false, ptr %9, align 1
  br label %107

93:                                               ; No predecessors!
  br label %94

94:                                               ; preds = %93, %84
  br label %95

95:                                               ; preds = %94
  %96 = load ptr, ptr %10, align 8
  %97 = getelementptr inbounds %struct.ParseContext_, ptr %96, i32 0, i32 2
  %98 = getelementptr inbounds %union.SourceSpan, ptr %97, i32 0, i32 0
  %99 = load i64, ptr %98, align 8
  call void (i64, ptr, ...) @sema_error_at(i64 %99, ptr noundef @.str.25)
  store i1 false, ptr %9, align 1
  br label %107

100:                                              ; No predecessors!
  br label %101

101:                                              ; preds = %100, %71
  %102 = load ptr, ptr %15, align 8
  %103 = call i32 @declid(ptr noundef %102)
  %104 = load ptr, ptr %11, align 8
  %105 = getelementptr inbounds %struct.Ast_, ptr %104, i32 0, i32 3
  %106 = getelementptr inbounds %struct.AstForeachStmt, ptr %105, i32 0, i32 5
  store i32 %103, ptr %106, align 8
  store i1 true, ptr %9, align 1
  br label %107

107:                                              ; preds = %101, %95, %88, %44
  %108 = load i1, ptr %9, align 1
  ret i1 %108
}