; Function Attrs: nounwind uwtable
define internal fastcc noundef zeroext i1 @parse_foreach_var(ptr noundef %0, ptr nocapture noundef %1) unnamed_addr #0 {
  %3 = getelementptr inbounds i8, ptr %0, i64 40
  %4 = load i32, ptr %3, align 8
  switch i32 %4, label %5 [
    i32 64, label %24
    i32 1, label %24
  ]

5:                                                ; preds = %2
  %6 = tail call ptr @parse_optional_type(ptr noundef nonnull %0) #5
  %.not = icmp eq ptr %6, null
  br i1 %.not, label %.critedge, label %7

7:                                                ; preds = %5
  %8 = load i16, ptr %6, align 8
  %9 = and i16 %8, 504
  %.not29 = icmp eq i16 %9, 0
  br i1 %.not29, label %49, label %.critedge

.critedge:                                        ; preds = %5, %7
  %10 = getelementptr inbounds i8, ptr %6, i64 16
  %11 = getelementptr inbounds i8, ptr %0, i64 56
  %12 = load i64, ptr %10, align 8
  %13 = load i64, ptr %11, align 8
  %.not.unshifted.i = xor i64 %13, %12
  %.not.i = icmp ult i64 %.not.unshifted.i, 4294967296
  br i1 %.not.i, label %15, label %14

14:                                               ; preds = %.critedge
  %.sroa.33.0.extract.shift.i = lshr i64 %12, 16
  br label %extend_span_with_token.exit

15:                                               ; preds = %.critedge
  %.sroa.4.0.extract.shift.i = lshr i64 %12, 24
  %16 = trunc i64 %13 to i32
  %17 = lshr i32 %16, 24
  %18 = lshr i32 %16, 16
  %19 = trunc i64 %.sroa.4.0.extract.shift.i to i32
  %20 = sub i32 %18, %19
  %21 = add i32 %20, %17
  %22 = zext i32 %21 to i64
  br label %extend_span_with_token.exit

extend_span_with_token.exit:                      ; preds = %14, %15
  %.sroa.311.0.i = phi i64 [ %.sroa.33.0.extract.shift.i, %14 ], [ %22, %15 ]
  %.sroa.311.0.insert.ext.i = shl nuw i64 %.sroa.311.0.i, 16
  %.sroa.311.0.insert.shift.i = and i64 %.sroa.311.0.insert.ext.i, 16711680
  %23 = and i64 %12, -16711681
  %.sroa.010.0.insert.insert.i = or disjoint i64 %.sroa.311.0.insert.shift.i, %23
  store i64 %.sroa.010.0.insert.insert.i, ptr %10, align 8
  br label %24

24:                                               ; preds = %2, %2, %extend_span_with_token.exit
  %.026 = phi ptr [ null, %2 ], [ %6, %extend_span_with_token.exit ], [ null, %2 ]
  %25 = tail call zeroext i1 @try_consume(ptr noundef nonnull %0, i32 noundef 1) #5
  br i1 %25, label %26, label %30

26:                                               ; preds = %24
  %27 = getelementptr inbounds i8, ptr %1, i64 24
  %28 = load i16, ptr %27, align 8
  %29 = or i16 %28, 2
  store i16 %29, ptr %27, align 8
  br label %30

30:                                               ; preds = %26, %24
  %31 = getelementptr inbounds i8, ptr %0, i64 16
  %32 = load ptr, ptr %31, align 8
  %33 = getelementptr inbounds i8, ptr %0, i64 48
  %34 = load i64, ptr %33, align 8
  %35 = tail call ptr @decl_new_var(ptr noundef %32, i64 %34, ptr noundef %.026, i32 noundef 2) #5
  %36 = tail call zeroext i1 @try_consume(ptr noundef nonnull %0, i32 noundef 64) #5
  br i1 %36, label %41, label %37

37:                                               ; preds = %30
  %.not30 = icmp eq ptr %.026, null
  %38 = load i64, ptr %33, align 8
  br i1 %.not30, label %40, label %39

39:                                               ; preds = %37
  tail call void (i64, ptr, ...) @sema_error_at(i64 %38, ptr noundef nonnull @.str.24) #5
  br label %49

40:                                               ; preds = %37
  tail call void (i64, ptr, ...) @sema_error_at(i64 %38, ptr noundef nonnull @.str.25) #5
  br label %49

41:                                               ; preds = %30
  %42 = load ptr, ptr @decl_arena, align 8
  %43 = ptrtoint ptr %35 to i64
  %44 = ptrtoint ptr %42 to i64
  %45 = sub i64 %43, %44
  %46 = sdiv exact i64 %45, 136
  %47 = trunc i64 %46 to i32
  %48 = getelementptr inbounds i8, ptr %1, i64 40
  store i32 %47, ptr %48, align 8
  br label %49

49:                                               ; preds = %7, %41, %40, %39
  %.0 = phi i1 [ true, %41 ], [ false, %39 ], [ false, %40 ], [ false, %7 ]
  ret i1 %.0
}